Certificate Request:
    Data:
        Version: 1 (0x0)
        Subject: C = FR, L = Limoges, O = CRYPTIS, OU = SecuTIC, CN = localhost
        Subject Public Key Info:
            Public Key Algorithm: id-ecPublicKey
                Public-Key: (256 bit)
                pub:
                    04:5b:d9:c4:1a:62:00:33:d2:d6:58:0d:44:68:f3:
                    7a:a1:91:90:02:96:e4:85:95:16:e7:39:3f:92:a1:
                    da:62:a2:af:fa:e9:62:d3:84:15:ac:61:25:ed:66:
                    c4:1d:92:9c:dc:f3:f9:85:01:2f:a4:ab:34:57:fd:
                    f7:f6:d9:8c:c7
                ASN1 OID: prime256v1
                NIST CURVE: P-256
        Attributes:
            Requested Extensions:
                X509v3 Basic Constraints: 
                    CA:FALSE
    Signature Algorithm: ecdsa-with-SHA256
    Signature Value:
        30:44:02:20:26:11:a3:80:03:8b:f7:76:7d:eb:6f:84:e9:dc:
        19:12:4c:4f:a9:9e:8f:7f:7f:b4:26:ef:50:a6:fc:2c:f8:d2:
        02:20:71:f7:b6:4d:26:d7:76:a9:e5:9f:2e:60:43:0e:11:ec:
        9d:f2:4a:25:54:31:84:b9:27:3e:e6:72:be:91:82:ca
-----BEGIN CERTIFICATE REQUEST-----
MIIBLTCB1QIBADBXMQswCQYDVQQGEwJGUjEQMA4GA1UEBwwHTGltb2dlczEQMA4G
A1UECgwHQ1JZUFRJUzEQMA4GA1UECwwHU2VjdVRJQzESMBAGA1UEAwwJbG9jYWxo
b3N0MFkwEwYHKoZIzj0CAQYIKoZIzj0DAQcDQgAEW9nEGmIAM9LWWA1EaPN6oZGQ
ApbkhZUW5zk/kqHaYqKv+uli04QVrGEl7WbEHZKc3PP5hQEvpKs0V/339tmMx6Ac
MBoGCSqGSIb3DQEJDjENMAswCQYDVR0TBAIwADAKBggqhkjOPQQDAgNHADBEAiAm
EaOAA4v3dn3rb4Tp3BkSTE+pno9/f7Qm71Cm/Cz40gIgcfe2TSbXdqnlny5gQw4R
7J3ySiVUMYS5Jz7mcr6Rgso=
-----END CERTIFICATE REQUEST-----
