Certificate:
    Data:
        Version: 3 (0x2)
        Serial Number:
            60:f7:85:cd:c7:97:a9:e3:29:2a:09:b5:a1:2b:df:5c:ed:20:71:c5
        Signature Algorithm: ecdsa-with-SHA256
        Issuer: C = FR, L = Limoges, O = CRYPTIS, OU = SecuTIC, CN = ACSECUTIC
        Validity
            Not Before: May 15 14:25:46 2023 GMT
            Not After : May 12 14:25:46 2033 GMT
        Subject: C = FR, L = Limoges, O = CRYPTIS, OU = SecuTIC, CN = localhost
        Subject Public Key Info:
            Public Key Algorithm: id-ecPublicKey
                Public-Key: (256 bit)
                pub:
                    04:5b:d9:c4:1a:62:00:33:d2:d6:58:0d:44:68:f3:
                    7a:a1:91:90:02:96:e4:85:95:16:e7:39:3f:92:a1:
                    da:62:a2:af:fa:e9:62:d3:84:15:ac:61:25:ed:66:
                    c4:1d:92:9c:dc:f3:f9:85:01:2f:a4:ab:34:57:fd:
                    f7:f6:d9:8c:c7
                ASN1 OID: prime256v1
                NIST CURVE: P-256
        X509v3 extensions:
            X509v3 Basic Constraints: critical
                CA:FALSE
            X509v3 Subject Key Identifier: 
                B1:74:8C:37:75:07:1D:35:D6:9B:E4:53:4C:9D:68:A6:14:73:98:81
            X509v3 Authority Key Identifier: 
                BE:5C:82:0C:B3:C0:20:51:D7:ED:94:17:DD:DC:A7:FC:6B:9E:F1:19
    Signature Algorithm: ecdsa-with-SHA256
    Signature Value:
        30:44:02:20:2a:3e:a0:68:fa:af:c6:5a:c7:9d:a0:53:ba:38:
        57:98:8a:c0:6c:e5:21:5b:18:13:1a:8a:98:09:9a:3c:ea:2a:
        02:20:51:6b:34:b1:4e:a0:f7:bb:c5:ee:09:9c:b4:d8:83:df:
        59:8c:35:86:ea:b6:63:7e:2d:8a:e5:d9:ae:46:61:5d
-----BEGIN CERTIFICATE-----
MIIB/zCCAaagAwIBAgIUYPeFzceXqeMpKgm1oSvfXO0gccUwCgYIKoZIzj0EAwIw
VzELMAkGA1UEBhMCRlIxEDAOBgNVBAcMB0xpbW9nZXMxEDAOBgNVBAoMB0NSWVBU
SVMxEDAOBgNVBAsMB1NlY3VUSUMxEjAQBgNVBAMMCUFDU0VDVVRJQzAeFw0yMzA1
MTUxNDI1NDZaFw0zMzA1MTIxNDI1NDZaMFcxCzAJBgNVBAYTAkZSMRAwDgYDVQQH
DAdMaW1vZ2VzMRAwDgYDVQQKDAdDUllQVElTMRAwDgYDVQQLDAdTZWN1VElDMRIw
EAYDVQQDDAlsb2NhbGhvc3QwWTATBgcqhkjOPQIBBggqhkjOPQMBBwNCAARb2cQa
YgAz0tZYDURo83qhkZACluSFlRbnOT+Sodpioq/66WLThBWsYSXtZsQdkpzc8/mF
AS+kqzRX/ff22YzHo1AwTjAMBgNVHRMBAf8EAjAAMB0GA1UdDgQWBBSxdIw3dQcd
Ndab5FNMnWimFHOYgTAfBgNVHSMEGDAWgBS+XIIMs8AgUdftlBfd3Kf8a57xGTAK
BggqhkjOPQQDAgNHADBEAiAqPqBo+q/GWsedoFO6OFeYisBs5SFbGBMaipgJmjzq
KgIgUWs0sU6g97vF7gmctNiD31mMNYbqtmN+LYrl2a5GYV0=
-----END CERTIFICATE-----
