Certificate:
    Data:
        Version: 3 (0x2)
        Serial Number:
            2a:93:78:41:e9:c5:08:e3:19:1f:af:47:a4:2f:4d:d1:c8:15:26:c1
        Signature Algorithm: ecdsa-with-SHA256
        Issuer: C = FR, L = Limoges, O = CRYPTIS, OU = SecuTIC, CN = ACSECUTIC
        Validity
            Not Before: May 15 14:25:46 2023 GMT
            Not After : Jun 14 14:25:46 2023 GMT
        Subject: C = FR, L = Limoges, O = CRYPTIS, OU = SecuTIC, CN = ACSECUTIC
        Subject Public Key Info:
            Public Key Algorithm: id-ecPublicKey
                Public-Key: (256 bit)
                pub:
                    04:1b:bd:56:c5:14:c3:ba:57:e0:81:16:9d:67:eb:
                    4d:d7:95:29:27:ee:53:42:55:f9:03:7f:23:30:63:
                    a5:21:0a:9a:a9:63:46:b8:da:85:e4:8e:25:93:6e:
                    19:1b:26:c7:2c:9d:7e:58:5a:c0:7d:e9:e0:53:fd:
                    e7:12:38:2e:74
                ASN1 OID: prime256v1
                NIST CURVE: P-256
        X509v3 extensions:
            X509v3 Basic Constraints: 
                CA:TRUE
            X509v3 Subject Key Identifier: 
                BE:5C:82:0C:B3:C0:20:51:D7:ED:94:17:DD:DC:A7:FC:6B:9E:F1:19
    Signature Algorithm: ecdsa-with-SHA256
    Signature Value:
        30:46:02:21:00:88:a6:c6:cf:0c:6d:d9:d8:01:cb:f2:09:85:
        20:96:14:a1:fb:a1:0e:19:a8:52:d9:1e:5f:d2:e5:b0:fc:e2:
        c9:02:21:00:b4:1f:b1:7f:bf:bb:fd:b2:79:bd:a3:ea:84:03:
        eb:28:f4:ed:f6:d7:be:13:6a:ac:6b:7d:6f:ac:29:19:64:4c
-----BEGIN CERTIFICATE-----
MIIB4DCCAYWgAwIBAgIUKpN4QenFCOMZH69HpC9N0cgVJsEwCgYIKoZIzj0EAwIw
VzELMAkGA1UEBhMCRlIxEDAOBgNVBAcMB0xpbW9nZXMxEDAOBgNVBAoMB0NSWVBU
SVMxEDAOBgNVBAsMB1NlY3VUSUMxEjAQBgNVBAMMCUFDU0VDVVRJQzAeFw0yMzA1
MTUxNDI1NDZaFw0yMzA2MTQxNDI1NDZaMFcxCzAJBgNVBAYTAkZSMRAwDgYDVQQH
DAdMaW1vZ2VzMRAwDgYDVQQKDAdDUllQVElTMRAwDgYDVQQLDAdTZWN1VElDMRIw
EAYDVQQDDAlBQ1NFQ1VUSUMwWTATBgcqhkjOPQIBBggqhkjOPQMBBwNCAAQbvVbF
FMO6V+CBFp1n603XlSkn7lNCVfkDfyMwY6UhCpqpY0a42oXkjiWTbhkbJscsnX5Y
WsB96eBT/ecSOC50oy8wLTAMBgNVHRMEBTADAQH/MB0GA1UdDgQWBBS+XIIMs8Ag
UdftlBfd3Kf8a57xGTAKBggqhkjOPQQDAgNJADBGAiEAiKbGzwxt2dgBy/IJhSCW
FKH7oQ4ZqFLZHl/S5bD84skCIQC0H7F/v7v9snm9o+qEA+so9O32174TaqxrfW+s
KRlkTA==
-----END CERTIFICATE-----
